target datalayout = "e-m:e-p270:32:32-p271:32:32-p272:64:64-i64:64-i128:128-f80:128-n8:16:32:64-S128"
target triple = "x86_64-pc-linux-gnu"

%struct.quic_lcidm_st = type { ptr, ptr, ptr, i64 }
%struct.quic_lcidm_conn_st = type { i64, ptr, ptr, ptr, i64, i8 }

@.str = private unnamed_addr constant [33 x i8] c"../openssl/ssl/quic/quic_lcidm.c\00", align 1

; Function Attrs: inlinehint nounwind uwtable
define internal ptr @lh_QUIC_LCIDM_CONN_retrieve(ptr noundef %0, ptr noundef %1) #3 {
  %3 = alloca ptr, align 8
  %4 = alloca ptr, align 8
  store ptr %0, ptr %3, align 8, !tbaa !31
  store ptr %1, ptr %4, align 8, !tbaa !27
  %5 = load ptr, ptr %3, align 8, !tbaa !31
  %6 = load ptr, ptr %4, align 8, !tbaa !27
  %7 = call ptr @OPENSSL_LH_retrieve(ptr noundef %5, ptr noundef %6)
  ret ptr %7
}

; Function Attrs: inlinehint nounwind uwtable
define internal void @lh_QUIC_LCID_free(ptr noundef %0) #3 {
  %2 = alloca ptr, align 8
  store ptr %0, ptr %2, align 8, !tbaa !30
  %3 = load ptr, ptr %2, align 8, !tbaa !30
  call void @OPENSSL_LH_free(ptr noundef %3)
  ret void
}

; Function Attrs: inlinehint nounwind uwtable
define internal i32 @lh_QUIC_LCIDM_CONN_error(ptr noundef %0) #3 {
  %2 = alloca ptr, align 8
  store ptr %0, ptr %2, align 8, !tbaa !31
  %3 = load ptr, ptr %2, align 8, !tbaa !31
  %4 = call i32 @OPENSSL_LH_error(ptr noundef %3)
  ret i32 %4
}

; Function Attrs: inlinehint nounwind uwtable
define internal ptr @lh_QUIC_LCIDM_CONN_insert(ptr noundef %0, ptr noundef %1) #3 {
  %3 = alloca ptr, align 8
  %4 = alloca ptr, align 8
  store ptr %0, ptr %3, align 8, !tbaa !31
  store ptr %1, ptr %4, align 8, !tbaa !27
  %5 = load ptr, ptr %3, align 8, !tbaa !31
  %6 = load ptr, ptr %4, align 8, !tbaa !27
  %7 = call ptr @OPENSSL_LH_insert(ptr noundef %5, ptr noundef %6)
  ret ptr %7
}

; Function Attrs: inlinehint nounwind uwtable
define internal ptr @lh_QUIC_LCID_new(ptr noundef %0, ptr noundef %1) #3 {
  %3 = alloca ptr, align 8
  %4 = alloca ptr, align 8
  store ptr %0, ptr %3, align 8, !tbaa !19
  store ptr %1, ptr %4, align 8, !tbaa !19
  %5 = load ptr, ptr %3, align 8, !tbaa !19
  %6 = load ptr, ptr %4, align 8, !tbaa !19
  %7 = call ptr @OPENSSL_LH_new(ptr noundef %5, ptr noundef %6)
  %8 = call ptr @OPENSSL_LH_set_thunks(ptr noundef %7, ptr noundef @lh_QUIC_LCID_hfn_thunk, ptr noundef @lh_QUIC_LCID_cfn_thunk, ptr noundef @lh_QUIC_LCID_doall_thunk, ptr noundef @lh_QUIC_LCID_doall_arg_thunk)
  ret ptr %8
}

; Function Attrs: nounwind uwtable
define internal ptr @lcidm_get0_conn(ptr noundef %0, ptr noundef %1) #0 {
  %3 = alloca ptr, align 8
  %4 = alloca ptr, align 8
  %5 = alloca %struct.quic_lcidm_conn_st, align 8
  store ptr %0, ptr %3, align 8, !tbaa !10
  store ptr %1, ptr %4, align 8, !tbaa !19
  call void @llvm.lifetime.start.p0(i64 48, ptr %5) #7
  %6 = load ptr, ptr %4, align 8, !tbaa !19
  %7 = getelementptr inbounds nuw %struct.quic_lcidm_conn_st, ptr %5, i32 0, i32 2
  store ptr %6, ptr %7, align 8, !tbaa !28
  %8 = load ptr, ptr %3, align 8, !tbaa !10
  %9 = getelementptr inbounds nuw %struct.quic_lcidm_st, ptr %8, i32 0, i32 2
  %10 = load ptr, ptr %9, align 8, !tbaa !16
  %11 = call ptr @lh_QUIC_LCIDM_CONN_retrieve(ptr noundef %10, ptr noundef %5)
  call void @llvm.lifetime.end.p0(i64 48, ptr %5) #7
  ret ptr %11
}

; Function Attrs: nounwind uwtable
define internal ptr @lcidm_upsert_conn(ptr noundef %0, ptr noundef %1) #0 {
  %3 = alloca ptr, align 8
  %4 = alloca ptr, align 8
  %5 = alloca ptr, align 8
  %6 = alloca ptr, align 8
  %7 = alloca i32, align 4
  store ptr %0, ptr %4, align 8, !tbaa !10
  store ptr %1, ptr %5, align 8, !tbaa !19
  call void @llvm.lifetime.start.p0(i64 8, ptr %6) #7
  %8 = load ptr, ptr %4, align 8, !tbaa !10
  %9 = load ptr, ptr %5, align 8, !tbaa !19
  %10 = call ptr @lcidm_get0_conn(ptr noundef %8, ptr noundef %9)
  store ptr %10, ptr %6, align 8, !tbaa !27
  %11 = load ptr, ptr %6, align 8, !tbaa !27
  %12 = icmp ne ptr %11, null
  br i1 %12, label %13, label %15

13:                                               ; preds = %2
  %14 = load ptr, ptr %6, align 8, !tbaa !27
  store ptr %14, ptr %3, align 8
  store i32 1, ptr %7, align 4
  br label %51

15:                                               ; preds = %2
  %16 = call noalias ptr @CRYPTO_zalloc(i64 noundef 48, ptr noundef @.str, i32 noundef 193)
  store ptr %16, ptr %6, align 8, !tbaa !27
  %17 = icmp eq ptr %16, null
  br i1 %17, label %18, label %19

18:                                               ; preds = %15
  br label %42

19:                                               ; preds = %15
  %20 = call ptr @lh_QUIC_LCID_new(ptr noundef @lcid_hash, ptr noundef @lcid_comp)
  %21 = load ptr, ptr %6, align 8, !tbaa !27
  %22 = getelementptr inbounds nuw %struct.quic_lcidm_conn_st, ptr %21, i32 0, i32 1
  store ptr %20, ptr %22, align 8, !tbaa !40
  %23 = icmp eq ptr %20, null
  br i1 %23, label %24, label %25

24:                                               ; preds = %19
  br label %42

25:                                               ; preds = %19
  %26 = load ptr, ptr %5, align 8, !tbaa !19
  %27 = load ptr, ptr %6, align 8, !tbaa !27
  %28 = getelementptr inbounds nuw %struct.quic_lcidm_conn_st, ptr %27, i32 0, i32 2
  store ptr %26, ptr %28, align 8, !tbaa !28
  %29 = load ptr, ptr %4, align 8, !tbaa !10
  %30 = getelementptr inbounds nuw %struct.quic_lcidm_st, ptr %29, i32 0, i32 2
  %31 = load ptr, ptr %30, align 8, !tbaa !16
  %32 = load ptr, ptr %6, align 8, !tbaa !27
  %33 = call ptr @lh_QUIC_LCIDM_CONN_insert(ptr noundef %31, ptr noundef %32)
  %34 = load ptr, ptr %4, align 8, !tbaa !10
  %35 = getelementptr inbounds nuw %struct.quic_lcidm_st, ptr %34, i32 0, i32 2
  %36 = load ptr, ptr %35, align 8, !tbaa !16
  %37 = call i32 @lh_QUIC_LCIDM_CONN_error(ptr noundef %36)
  %38 = icmp ne i32 %37, 0
  br i1 %38, label %39, label %40

39:                                               ; preds = %25
  br label %42

40:                                               ; preds = %25
  %41 = load ptr, ptr %6, align 8, !tbaa !27
  store ptr %41, ptr %3, align 8
  store i32 1, ptr %7, align 4
  br label %51

42:                                               ; preds = %39, %24, %18
  %43 = load ptr, ptr %6, align 8, !tbaa !27
  %44 = icmp ne ptr %43, null
  br i1 %44, label %45, label %50

45:                                               ; preds = %42
  %46 = load ptr, ptr %6, align 8, !tbaa !27
  %47 = getelementptr inbounds nuw %struct.quic_lcidm_conn_st, ptr %46, i32 0, i32 1
  %48 = load ptr, ptr %47, align 8, !tbaa !40
  call void @lh_QUIC_LCID_free(ptr noundef %48)
  %49 = load ptr, ptr %6, align 8, !tbaa !27
  call void @CRYPTO_free(ptr noundef %49, ptr noundef @.str, i32 noundef 210)
  br label %50

50:                                               ; preds = %45, %42
  store ptr null, ptr %3, align 8
  store i32 1, ptr %7, align 4
  br label %51

51:                                               ; preds = %50, %40, %13
  call void @llvm.lifetime.end.p0(i64 8, ptr %6) #7
  %52 = load ptr, ptr %3, align 8
  ret ptr %52
}