; Function Attrs: nounwind uwtable
define internal fastcc ptr @lcidm_upsert_conn(ptr noundef readonly captures(none) %0, ptr noundef %1) unnamed_addr #0 {
  %3 = alloca %struct.quic_lcidm_conn_st, align 8
  %4 = getelementptr i8, ptr %0, i64 16
  %.val = load ptr, ptr %4, align 8, !tbaa !12
  call void @llvm.lifetime.start.p0(i64 48, ptr nonnull %3) #11
  %5 = getelementptr inbounds nuw i8, ptr %3, i64 16
  store ptr %1, ptr %5, align 8, !tbaa !24
  %6 = call ptr @OPENSSL_LH_retrieve(ptr noundef %.val, ptr noundef nonnull %3) #11
  call void @llvm.lifetime.end.p0(i64 48, ptr nonnull %3) #11
  %.not = icmp eq ptr %6, null
  br i1 %.not, label %7, label %22

7:                                                ; preds = %2
  %8 = call noalias ptr @CRYPTO_zalloc(i64 noundef 48, ptr noundef nonnull @.str, i32 noundef 193) #11
  %cond = icmp eq ptr %8, null
  br i1 %cond, label %22, label %9

9:                                                ; preds = %7
  %10 = call ptr @OPENSSL_LH_new(ptr noundef nonnull @lcid_hash, ptr noundef nonnull @lcid_comp) #11
  %11 = call ptr @OPENSSL_LH_set_thunks(ptr noundef %10, ptr noundef nonnull @lh_QUIC_LCID_hfn_thunk, ptr noundef nonnull @lh_QUIC_LCID_cfn_thunk, ptr noundef nonnull @lh_QUIC_LCID_doall_thunk, ptr noundef nonnull @lh_QUIC_LCID_doall_arg_thunk) #11
  %12 = getelementptr inbounds nuw i8, ptr %8, i64 8
  store ptr %11, ptr %12, align 8, !tbaa !27
  %13 = icmp eq ptr %11, null
  br i1 %13, label %20, label %14

14:                                               ; preds = %9
  %15 = getelementptr inbounds nuw i8, ptr %8, i64 16
  store ptr %1, ptr %15, align 8, !tbaa !24
  %16 = load ptr, ptr %4, align 8, !tbaa !12
  %17 = call ptr @OPENSSL_LH_insert(ptr noundef %16, ptr noundef nonnull %8) #11
  %18 = load ptr, ptr %4, align 8, !tbaa !12
  %19 = call i32 @OPENSSL_LH_error(ptr noundef %18) #11
  %.not17 = icmp eq i32 %19, 0
  br i1 %.not17, label %22, label %._crit_edge

._crit_edge:                                      ; preds = %14
  %.pre = load ptr, ptr %12, align 8, !tbaa !27
  br label %20

20:                                               ; preds = %._crit_edge, %9
  %21 = phi ptr [ %.pre, %._crit_edge ], [ null, %9 ]
  call void @OPENSSL_LH_free(ptr noundef %21) #11
  call void @CRYPTO_free(ptr noundef nonnull %8, ptr noundef nonnull @.str, i32 noundef 210) #11
  br label %22

22:                                               ; preds = %7, %20, %14, %2
  %.0 = phi ptr [ %6, %2 ], [ %8, %14 ], [ null, %7 ], [ null, %20 ]
  ret ptr %.0
}